(dp1
S'val'
p2
(dp3
S'get_xticks'
p4
F0.28660052069142972
sS'dist'
p5
F0.14285714285714285
sS'get_text'
p6
F0.37994279529993813
sS'sca'
p7
F0.32393127705627706
sS'get_dpi'
p8
F0.22645502645502644
sS'contourf'
p9
F0.28893756847262941
sS'set_animated'
p10
F0.43947619047619052
sS'set_bad'
p11
F0.18602484472049693
sS'set_scientific'
p12
F0
sS'set_rotation'
p13
F0.63065605891692844
sS'get_size_inches'
p14
F0.26722085385878491
sS'join'
p15
F0.42293894830659545
sS'set_linewidths'
p16
F0.13333333333333333
sS'cool'
p17
F0
sS'bxp'
p18
F0.66666666666666663
sS'list'
p19
F0.19326399462094654
sS'set_color'
p20
F0.49531151711300514
sS'findSystemFonts'
p21
F0
sS'ishold'
p22
F0.44444444444444442
sS'boxplot_stats'
p23
F0.33333333333333331
sS'set_height'
p24
F0.48045843045843045
sS'get_xticklabels'
p25
F0.4316335855917437
sS'append'
p26
F0.30551846586473336
sS'get_xlabel'
p27
F0.33333333333333331
sS'axes'
p28
F0.24153313861689382
sS'get_extent'
p29
F0.21428571428571427
sS'invert_yaxis'
p30
F0.51616140269986421
sS'phase_spectrum'
p31
F0
sS'violinplot'
p32
F0.090909090909090912
sS'axvline'
p33
F0.4618201243201242
sS'twiny'
p34
F0.36923807673807663
sS'twinx'
p35
F0.28345152512363225
sS'set_markerfacecolor'
p36
F0.64333333333333331
sS'get_images'
p37
F0.10000000000000001
sS'get_patch_transform'
p38
F0.66666666666666663
sS'logspace'
p39
F0.11978854478854477
sS'set_xy'
p40
F0.42999353587588879
sS'set_label_position'
p41
F0.39263165880013706
sS'get_frame'
p42
F0.59027777777777779
sS'set_rotation_mode'
p43
F0.4872727272727273
sS'set_text'
p44
F0.43841089466089461
sS'rgrids'
p45
F0.41666666666666669
sS'legend'
p46
F0.55391004459866444
sS'box'
p47
F0
sS'set_active'
p48
F0.56666666666666665
sS'changed'
p49
F0.4375
sS'set_title'
p50
F0.47148032690944319
sS'get_array'
p51
F0.28056758056758052
sS'broken_barh'
p52
F0.35602564102564099
sS'get_width'
p53
F0.45566919191919197
sS'set_autoscale_on'
p54
F0.38692261218212787
sS'ginput'
p55
F0.41880952380952385
sS'num2date'
p56
F0.24478021978021974
sS'scaled'
p57
F0.5
sS'get_active'
p58
F0
sS'set_paths'
p59
F0.75
sS'quiver'
p60
F0.31080586080586076
sS'connect_event'
p61
F0.4375
sS'ticklabel_format'
p62
F0.49888888888888888
sS'plot'
p63
F0.33287108533693088
sS'use'
p64
F0.014880952380952382
sS'flush_events'
p65
F0.625
sS'set_rasterized'
p66
F0.33333333333333331
sS'contains'
p67
F0.23469841269841268
sS'get_size'
p68
F0.44522727272727275
sS'set_weight'
p69
F0.93333333333333335
sS'set_axis_off'
p70
F0.47289032806274178
sS'set_yticks'
p71
F0.54354804726567818
sS'clabel'
p72
F0.48962891462891461
sS'update_ticks'
p73
F0.42460317460317459
sS'set_markeredgewidth'
p74
F0.61666666666666659
sS'get_label'
p75
F0.42083333333333334
sS'vlines'
p76
F0.36840120663650078
sS'get_fignums'
p77
F0.4107142857142857
sS'ylabel'
p78
F0.49801526446471128
sS'hold'
p79
F0.33142155002620116
sS'resize'
p80
F0.1125
sS'set_snap'
p81
F0
sS'locked'
p82
F0.45833333333333337
sS'set_fontname'
p83
F0.62794612794612792
sS'hist2d'
p84
F0.17134199134199132
sS'setup'
p85
F0.14999999999999999
sS'make_axes'
p86
F0.5323809523809524
sS'get_majorticklocs'
p87
F0.25555555555555554
sS'get_major_formatter'
p88
F0.52083333333333326
sS'set_axis_on'
p89
F0.16666666666666666
sS'nonsingular'
p90
F0.34444444444444439
sS'rc_context'
p91
F0.066666666666666666
sS'scatter'
p92
F0.33806979277338117
sS'spy'
p93
F0.25
sS'raise_if_exceeds'
p94
F0.65000000000000002
sS'get_xticklines'
p95
F0.38750000000000001
sS'figure'
p96
F0.066123754000896692
sS'subplot2grid'
p97
F0.29347298262739441
sS'process'
p98
F0
sS'on_clicked'
p99
F0.54226475279106856
sS'get_major_locator'
p100
F0.25
sS'update_positions'
p101
F0.25
sS'get_tightbbox'
p102
F0
sS'deepcopy'
p103
F0
sS'set_position'
p104
F0.47365475138144214
sS'axis'
p105
F0.44956400501813842
sS'gca'
p106
F0.21470176626555199
sS'release_mouse'
p107
F0.8125
sS'end'
p108
F0.28666666666666668
sS'winter'
p109
F0
sS'gcf'
p110
F0.2530374360595074
sS'csd'
p111
F0.36363636363636365
sS'write'
p112
F0.30867895545314894
sS'set_xticklabels'
p113
F0.58798487762647866
sS'hot'
p114
F0.23626373626373623
sS'set_array'
p115
F0.33822772744294166
sS'set_hatch'
p116
F0.56499999999999995
sS'get_color'
p117
F0.3504810004810005
sS'griddata'
p118
F0.13045412104235635
sS'get_position'
p119
F0.42462500869641157
sS'get_extents'
p120
F0.66666666666666674
sS'refine_field'
p121
F0.21428571428571427
sS'draw_artist'
p122
F0.49517135642135651
sS'open_group'
p123
F0.20000000000000001
sS'interpolated'
p124
F0.16666666666666666
sS'tricontour'
p125
F0.23214285714285712
sS'subplots'
p126
F0.048487719552196509
sS'barbs'
p127
F0.13333333333333333
sS'get_xbound'
p128
F0.40000000000000002
sS'set_clip_on'
p129
F0.43948306595365416
sS'xlim'
p130
F0.42414578789569296
sS'get_xlim'
p131
F0.30480843034034522
sS'set_label'
p132
F0.6087858157307402
sS'set_xscale'
p133
F0.4173891254248398
sS'iter_segments'
p134
F0.027777777777777776
sS'tick_left'
p135
F0.45760277848513142
sS'saving'
p136
F0.25
sS'convert_xunits'
p137
F0.25
sS'disconnect'
p138
F0.75
sS'add_collection'
p139
F0.48153587368703654
sS'clf'
p140
F0.27124107374107376
sS'cla'
p141
F0.35056623593208963
sS'update_datalim'
p142
F0.51380471380471382
sS'minorticks_off'
p143
F0.5714285714285714
sS'get_figwidth'
p144
F0.46706349206349201
sS'suptitle'
p145
F0.42843207491648577
sS'get_backend'
p146
F0.40000000000000002
sS'drange'
p147
F0.11965811965811966
sS'tick_bottom'
p148
F0.53805205415499535
sS'quiverkey'
p149
F0.33333333333333331
sS'set_yscale'
p150
F0.4472341649529597
sS'is_numlike'
p151
F0
sS'save_figure'
p152
F0.75
sS'copy_properties'
p153
F0.77272727272727271
sS'waitforbuttonpress'
p154
F0.60707070707070698
sS'set_powerlimits'
p155
F0.34166666666666667
sS'set_message'
p156
F0.55555555555555547
sS'draw_idle'
p157
F0.56509864046628755
sS'set_xdata'
p158
F0.5046189016297713
sS'arrow'
p159
F0.48951515151515146
sS'set_path_effects'
p160
F0.16666666666666666
sS'set_figwidth'
p161
F0.43472222222222223
sS'connect'
p162
F0.43346353646353647
sS'xaxis_date'
p163
F0.51240771133628282
sS'margins'
p164
F0.5002635575806309
sS'get_ylim'
p165
F0.44439566865882668
sS'set_edgecolor'
p166
F0.50720465947765792
sS'add_table'
p167
F0.75
sS'gradient'
p168
F0.24917582417582418
sS'streamplot'
p169
F0.46579365079365082
sS'set_autoscaley_on'
p170
F0.59351851851851845
sS'rc'
p171
F0.11369347057129332
sS'set_x'
p172
F0.35598484848484846
sS'log2'
p173
F0.15833333333333333
sS'date2num'
p174
F0.11672736214402882
sS'set_y'
p175
F0.49184523809523806
sS'acorr'
p176
F0.3863945578231292
sS'set_color_cycle'
p177
F0.34183501683501682
sS'set_ymargin'
p178
F0.59999999999999998
sS'new_timer'
p179
F0.50194805194805192
sS'base'
p180
F0.5
sS'eventplot'
p181
F0
sS'rgb_to_hsv'
p182
F0.23333333333333331
sS'get_alpha'
p183
F0.29999999999999999
sS'set_linestyle'
p184
F0.61666666666666659
sS'yaxis_date'
p185
F0.56684981684981683
sS'set_clim'
p186
F0.48678451178451165
sS'set_xlabel'
p187
F0.46861046137920315
sS'set_visible'
p188
F0.48651248653048224
sS'set_xticks'
p189
F0.4834370692323755
sS'semilogx'
p190
F0.29669312169312173
sS'semilogy'
p191
F0.24085213032581457
sS'set_axisbelow'
p192
F0.42857142857142855
sS'update_from'
p193
F0.59999999999999998
sS'yticks'
p194
F0.44599631494221997
sS'epoch2num'
p195
F0
sS'draw_markers'
p196
F0.25
sS'get_x'
p197
F0.23571428571428571
sS'render'
p198
F0
sS'subplots_adjust'
p199
F0.38279289214609552
sS'get_yscale'
p200
F0.83333333333333337
sS'fill_between'
p201
F0.38724189250955748
sS'tick_top'
p202
F0.52844366281866273
sS'figimage'
p203
F0.46645743145743152
sS'set_patch_circle'
p204
F0.47222222222222221
sS'set_cursor'
p205
F0.8571428571428571
sS'get_lines'
p206
F0.29601571268237936
sS'set_ylim'
p207
F0.53589189090191403
sS'get_verts'
p208
F0.59583333333333333
sS'jet'
p209
F0.14428210678210676
sS'figaspect'
p210
F0
sS'get_yticklabels'
p211
F0.49274794785178183
sS'imshow'
p212
F0.32797654397103559
sS'axhline'
p213
F0.39159902597402596
sS'pcolor'
p214
F0.27172530018533908
sS'get_xy'
p215
F0.41397306397306394
sS'triplot'
p216
F0.32186147186147185
sS'subplot'
p217
F0.2274023641269253
sS'set_mutation_scale'
p218
F0.66666666666666663
sS'update'
p219
F0.344711317362766
sS'format_coord'
p220
F0
sS'get_yticklines'
p221
F0.64057017543859651
sS'get_major_ticks'
p222
F0.54095465937571208
sS'locator_params'
p223
F0.68333333333333335
sS'copy'
p224
F0.2071533815341865
sS'project'
p225
F0.5
sS'rgb2hex'
p226
F0
sS'xlabel'
p227
F0.43364090478773909
sS'xcorr'
p228
F0.10000000000000001
sS'tripcolor'
p229
F0.41547619047619044
sS'set_bounds'
p230
F0.59999999999999998
sS'close_event'
p231
F0.5
sS'get_path'
p232
F0.31481481481481483
sS'barh'
p233
F0.38106584791367393
sS'clim'
p234
F0.33333333333333331
sS'ylim'
p235
F0.50705308950316474
sS'get_ylabel'
p236
F0.35185185185185186
sS'set_lw'
p237
F0.46666666666666662
sS'get_yticks'
p238
F0.45331088664421998
sS'figlegend'
p239
F0.54004329004328999
sS'destroy'
p240
F0.28484848484848491
sS'boxplot'
p241
F0.24160197182585247
sS'set_dashes'
p242
F0.50529100529100535
sS'set_ticks'
p243
F0.48508909853249482
sS'set_picker'
p244
F0.56028439153439147
sS'get_visible'
p245
F0.27857142857142858
sS'to_polygons'
p246
F0.5
sS'get_fontsize'
p247
F0.77586206896551724
sS'clear'
p248
F0.32560308049438474
sS'infodict'
p249
F0.5
sS'autoscale_view'
p250
F0.62716066613125443
sS'get_xdata'
p251
F0.18888888888888886
sS'set_ticklabels'
p252
F0.6102648046398047
sS'set_window_title'
p253
F0.24404761904761904
sS'write_png'
p254
F0.88888888888888884
sS'axvspan'
p255
F0.32267830209006682
sS'idle_event'
p256
F0
sS'add_patch'
p257
F0.42797335990200036
sS'set_extent'
p258
F0.36084249084249087
sS'points_to_pixels'
p259
F0.54325757575757572
sS'show'
p260
F0.73716937614708278
sS'text'
p261
F0.48839394210959791
sS'get_offsets'
p262
F0.43805765993265999
sS'get_yaxis'
p263
F0.7142857142857143
sS'stackplot'
p264
F0.24666666666666665
sS'get_view_interval'
p265
F0.5
sS'set_font_properties'
p266
F0.5
sS'find'
p267
F0.094444444444444442
sS'pause'
p268
F0.71261564290410451
sS'title'
p269
F0.47329329436736567
sS'convert_yunits'
p270
F0.5
sS'axhspan'
p271
F0.3125
sS'get_rotation'
p272
F0.56499999999999995
sS'set_frame_on'
p273
F0.41967817144541286
sS'get_minorticklocs'
p274
F0.3888888888888889
sS'__call__'
p275
F0.72727272727272729
sS'plotfile'
p276
F0.14285714285714285
sS'set_xlim'
p277
F0.46443439197140279
sS'set_edgecolors'
p278
F0.23257575757575757
sS'get'
p279
F0.25506788442032896
sS'get_transform'
p280
F0.56818181818181812
sS'set_aspect'
p281
F0.46202035918178175
sS'get_loc'
p282
F0.40000000000000002
sS'get_ticklines'
p283
F0.3535204991087344
sS'set_offset_position'
p284
F0.39810670645069623
sS'mpl_connect'
p285
F0.49642344069217548
sS'draw_frame'
p286
F0.69405594405594417
sS'gray'
p287
F0.3619408369408369
sS'bar'
p288
F0.28187233030070952
sS'get_minor_ticks'
p289
F0.73684210526315785
sS'ioff'
p290
F0.42880952380952381
sS'remove'
p291
F0.43990305341994951
sS'set_verticalalignment'
p292
F0.625
sS'loglog'
p293
F0.33419913419913422
sS'release'
p294
F0.51666666666666661
sS'set'
p295
F0.37377783468885173
sS'minorticks_on'
p296
F0.60919191919191928
sS'prctile'
p297
F0
sS'set_fontsize'
p298
F0.57795295542169056
sS'get_ticklabels'
p299
F0.48676046176046167
sS'set_ylabel'
p300
F0.5485929475166661
sS'imread'
p301
F0.19099025974025977
sS'close'
p302
F0.59984773547353443
sS'contour'
p303
F0.3292263739844386
sS'new_subplotspec'
p304
F0
sS'get_legend_handles_labels'
p305
F0.378780117683861
sS'autoscale'
p306
F0.56630765068265065
sS'set_solid_capstyle'
p307
F0.66666666666666663
sS'xticks'
p308
F0.41315037238925606
sS'hist'
p309
F0.27276612276612283
sS'bivariate_normal'
p310
F0.11731486542807297
sS'set_figheight'
p311
F0.3298611111111111
sS'set_ha'
p312
F0.5355977355977356
sS'autoscale_None'
p313
F0.375
sS'imsave'
p314
F0.375
sS'from_levels_and_colors'
p315
F0.11666666666666665
sS'key_press_handler'
p316
F0.40000000000000002
sS'detrend'
p317
F0.10000000000000001
sS'push_current'
p318
F0.59722222222222221
sS'set_data'
p319
F0.49926526268932164
sS'switch_backend'
p320
F0.29999999999999999
sS'on_changed'
p321
F0.59563640806715601
sS'draw_path'
p322
F0.84090909090909094
sS'context'
p323
F0
sS'strftime'
p324
F0.23834175084175083
sS'set_file'
p325
F0.083333333333333329
sS'get_ybound'
p326
F0.39047619047619048
sS'set_ticks_position'
p327
F0.50765587058156714
sS'set_pad'
p328
F0.5
sS'figtext'
p329
F0.52935185185185185
sS'tricontourf'
p330
F0.27993197278911558
sS'table'
p331
F0.50604727398205662
sS'add_line'
p332
F0.43638887373131069
sS'normpdf'
p333
F0.07407407407407407
sS'iterable'
p334
F0.16346153846153846
sS'new_gc'
p335
F0.72727272727272729
sS'add_axes'
p336
F0.30968718845893844
sS'set_offsets'
p337
F0.54413694770837617
sS'set_mask'
p338
F0.25
sS'get_width_height'
p339
F0.55801266634599977
sS'tick_values'
p340
F0
sS'csv2rec'
p341
F0.047619047619047616
sS'set_major_locator'
p342
F0.4245584271243073
sS'update_scalarmappable'
p343
F0.27777777777777779
sS'new_figure_manager'
p344
F0
sS'tight_layout'
p345
F0.68808218646610997
sS'get_facecolor'
p346
F0.29999999999999999
sS'set_figure'
p347
F0.51428571428571423
sS'get_majorticklabels'
p348
F0.40259740259740262
sS'get_axes'
p349
F0.32108744082428292
sS'grab_mouse'
p350
F0.75
sS'get_window_extent'
p351
F0.51448352573352563
sS'angle_spectrum'
p352
F0
sS'colorbar'
p353
F0.51239305139118618
sS'set_over'
p354
F0.33333333333333337
sS'set_canvas'
p355
F0.38750000000000001
sS'set_minor_formatter'
p356
F0.54239718614718613
sS'blit'
p357
F0.63274436211936214
sS'get_title'
p358
F0.58888888888888891
sS'parse'
p359
F0.16666666666666666
sS'get_figure'
p360
F0.27678571428571425
sS'set_xmargin'
p361
F0.40000000000000002
sS'get_offset_text'
p362
F0.43333333333333335
sS'resize_event'
p363
F0.5
sS'hitlist'
p364
F0.5
sS'print_figure'
p365
F0.70951028138528149
sS'getp'
p366
F0.43154761904761901
sS'pan'
p367
F0.125
sS'finish'
p368
F0.55555555555555558
sS'ion'
p369
F0.097749592190051277
sS'set_minor_locator'
p370
F0.50474661699683987
sS'identity'
p371
F0
sS'center'
p372
F0.75
sS'set_alpha'
p373
F0.50903576216407598
sS'get_ticklocs'
p374
F0.39494708994708988
sS'draggable'
p375
F0.68452380952380953
sS'setp'
p376
F0.48418332877689219
sS'get_ymajorticklabels'
p377
F0.66666666666666663
sS'set_dpi'
p378
F0.19646464646464645
sS'restore'
p379
F0.62121212121212122
sS'hexbin'
p380
F0.34198175561811922
sS'savefig'
p381
F0.6960675029497948
sS'set_size_inches'
p382
F0.42887725104016339
sS'set_size'
p383
F0.47777777777777786
sS'get_angle'
p384
F0.25
sS'set_tick_params'
p385
F0.48710211357270178
sS'invert_xaxis'
p386
F0.61442793317793321
sS'get_height'
p387
F0.4409707939119703
sS'get_children'
p388
F0.3733024118738405
sS'set_label_coords'
p389
F0.61329614378394859
sS'get_linestyle'
p390
F0.54583333333333339
sS'add'
p391
F0.48241071428571425
sS'transformed'
p392
F0.52280343113676453
sS'set_facecolors'
p393
F0.31668109668109673
sS'hlines'
p394
F0.25268452753208853
sS'add_callback'
p395
F0.61795454545454542
sS'save'
p396
F0.44468173801507144
sS'set_positions'
p397
F0
sS'set_major_formatter'
p398
F0.49309439189191717
sS'evaluate'
p399
F0
sS'psd'
p400
F0.24500000000000002
sS'xscale'
p401
F0.28535095856524428
sS'grid'
p402
F0.54657454452100152
sS'set_xbound'
p403
F0.52945054945054948
sS'set_axis_bgcolor'
p404
F0.40903880070546733
sS'unique'
p405
F0.15334249084249083
sS'iter_ticks'
p406
F0.5
sS'plot_date'
p407
F0.32813336504472235
sS'zoom'
p408
F0.2762820512820513
sS'get_name'
p409
F0.10000000000000001
sS'ignore'
p410
F0.6875
sS'pcolormesh'
p411
F0.30775472281082367
sS'tick_right'
p412
F0.51318318767742044
sS'intersects_bbox'
p413
F0.2857142857142857
sS'get_clim'
p414
F0.27532467532467531
sS'get_xmajorticklabels'
p415
F0.28787878787878785
sS'draw'
p416
F0.60349835320680412
sS'rcdefaults'
p417
F0
sS'flatten'
p418
F0.22275566538724431
sS'home'
p419
F0.055555555555555552
sS'matshow'
p420
F0.31297838871368278
sS'get_axes_locator'
p421
F0.40000000000000002
sS'cohere'
p422
F0.36363636363636365
sS'set_smart_bounds'
p423
F0.55541285103785099
sS'add_subplot'
p424
F0.24256904341792465
sS'set_linewidth'
p425
F0.5253759695165946
sS'set_bbox'
p426
F0.14285714285714285
sS'set_rasterization_zorder'
p427
F0
sS'set_bbox_to_anchor'
p428
F0.60714285714285721
sS'xkcd'
p429
F0.04583333333333333
sS'set_style'
p430
F0.22500000000000001
sS'set_axes_locator'
p431
F0.57954545454545459
sS'set_clip_path'
p432
F0.63434343434343432
sS'stem'
p433
F0.17083333333333334
sS'volume_overlay'
p434
F0.5
sS'step'
p435
F0.33872819100091828
sS'hsv'
p436
F0.25
sS'properties'
p437
F0
sS'contains_point'
p438
F0.25
sS'get_xscale'
p439
F0.66666666666666663
sS'fill_betweenx'
p440
F0.36876417233560094
sS'set_markersize'
p441
F0.45162037037037034
sS'set_horizontalalignment'
p442
F0.39116161616161615
sS'subs'
p443
F0.625
sS'set_fontproperties'
p444
F0.33333333333333331
sS'annotate'
p445
F0.46947075690632389
sS'set_drawstyle'
p446
F0.25
sS'wrap'
p447
F0.041666666666666664
sS'get_horizontalalignment'
p448
F0.57272727272727275
sS'get_cmap'
p449
F0.15002940899680028
sS'get_xydata'
p450
F0.29952380952380953
sS'get_xaxis'
p451
F0.3619047619047619
sS'findobj'
p452
F0.28125
sS'transform'
p453
F0.41106859915683452
sS'tick_params'
p454
F0.54829656330345322
sS'start'
p455
F0.50407732364254099
sS'set_ydata'
p456
F0.49041102557905702
sS'set_c'
p457
F0.85526315789473684
sS'to_rgba'
p458
F0.20978084415584416
sS'report_memory'
p459
F0.66666666666666663
sS'add_artist'
p460
F0.50233854930116606
sS'relim'
p461
F0.55156942730472136
sS'set_facecolor'
p462
F0.42561507775602342
sS'hsv_to_rgb'
p463
F0.0703125
sS'reset'
p464
F0.64354066985645941
sS'get_zorder'
p465
F0.40000000000000002
sS'set_transform'
p466
F0.38538239538239533
sS'set_ybound'
p467
F0.53890977443609012
sS'refine_triangulation'
p468
F0
sS'pcolorfast'
p469
F0
sS'stop_event_loop'
p470
F0.80000000000000004
sS'intersects_path'
p471
F0.14285714285714285
sS'get_sample_data'
p472
F0.013888888888888888
sS'set_under'
p473
F0.28750000000000009
sS'set_norm'
p474
F0.25
sS'new_figure_manager_given_figure'
p475
F0.33333333333333331
sS'set_navigate'
p476
F0.28125
sS'yscale'
p477
F0.48397544915402058
sS'specgram'
p478
F0.1866549088771311
sS'pie'
p479
F0.34883357383357383
sS'apply_aspect'
p480
F0.69999999999999996
sS'set_cmap'
p481
F0.23611111111111108
sS'get_data_ratio'
p482
F0.25
sS'mpl_disconnect'
p483
F0.54413265306122449
sS'drag_pan'
p484
F0
sS'fill'
p485
F0.30759585652442795
sS'get_data'
p486
F0.23559523809523805
sS'get_majorticklines'
p487
F0.87804878048780488
sS'get_legend'
p488
F0.25
sS'cleanup'
p489
F0.625
sS'magnitude_spectrum'
p490
F0
sS'contains_points'
p491
F0.17333333333333331
sS'register_cmap'
p492
F0.28750000000000003
sS'autofmt_xdate'
p493
F0.62580535406622373
sS'polar'
p494
F0.21378968253968253
sS'set_yticklabels'
p495
F0.5958442081019143
sS'set_clip_box'
p496
F0.58181818181818179
sS'grab_frame'
p497
F0.75
sS'set_zorder'
p498
F0.56276455026455019
sS'set_backgroundcolor'
p499
F0.40000000000000002
sS'add_lines'
p500
F0.79797979797979801
sS'errorbar'
p501
F0.34835903883698005
sS'set_marker'
p502
F0.50462962962962965
sS'get_texts'
p503
F0.26458333333333334
sS'set_params'
p504
F0.75
sS'get_xaxis_transform'
p505
F0.16666666666666666
sS'get_ydata'
p506
F0.40454545454545449
sS'start_event_loop'
p507
F0.59999999999999998
sS'delaxes'
p508
F0.50061213640161006
sS'set_width'
p509
F0.41666666666666669
sS'get_figheight'
p510
F0.48412698412698413
ss.